; Function Attrs: mustprogress nounwind uwtable
define internal void @_ZN12_GLOBAL__N_117AArch64PassConfig15addPostRegAllocEv(ptr noundef nonnull align 8 dereferenceable(134) %0) unnamed_addr #0 align 2 {
  %2 = getelementptr inbounds nuw i8, ptr %0, i64 112
  %3 = load ptr, ptr %2, align 8
  %4 = getelementptr inbounds nuw i8, ptr %3, i64 664
  %5 = load i32, ptr %4, align 8
  %.not = icmp eq i32 %5, 0
  br i1 %.not, label %.thread, label %6

6:                                                ; preds = %1
  %7 = load i8, ptr getelementptr inbounds (i8, ptr @_ZL30EnableRedundantCopyElimination, i64 128), align 8
  %8 = trunc i8 %7 to i1
  br i1 %8, label %9, label %.thread4

9:                                                ; preds = %6
  %10 = tail call noundef ptr @_ZN4llvm41createAArch64RedundantCopyEliminationPassEv() #21
  tail call void @_ZN4llvm16TargetPassConfig7addPassEPNS_4PassE(ptr noundef nonnull align 8 dereferenceable(134) %0, ptr noundef %10) #21
  %.pre = load ptr, ptr %2, align 8
  %.phi.trans.insert = getelementptr inbounds nuw i8, ptr %.pre, i64 664
  %.pre2 = load i32, ptr %.phi.trans.insert, align 8
  %11 = icmp eq i32 %.pre2, 0
  br i1 %11, label %.thread, label %.thread4

.thread4:                                         ; preds = %6, %9
  %12 = tail call noundef zeroext i1 @_ZNK4llvm16TargetPassConfig20usingDefaultRegAllocEv(ptr noundef nonnull align 8 dereferenceable(134) %0) #21
  br i1 %12, label %13, label %.thread

13:                                               ; preds = %.thread4
  %14 = tail call noundef ptr @_ZN4llvm31createAArch64A57FPLoadBalancingEv() #21
  tail call void @_ZN4llvm16TargetPassConfig7addPassEPNS_4PassE(ptr noundef nonnull align 8 dereferenceable(134) %0, ptr noundef %14) #21
  br label %.thread

.thread:                                          ; preds = %1, %13, %.thread4, %9
  ret void
}